target datalayout = "e-m:e-p270:32:32-p271:32:32-p272:64:64-i64:64-i128:128-f80:128-n8:16:32:64-S128"
target triple = "x86_64-pc-linux-gnu"

%struct.AVFormatContext = type { ptr, ptr, ptr, ptr, ptr, i32, i32, ptr, i32, ptr, i32, ptr, ptr, i64, i64, i64, i32, i32, i32, i64, i64, ptr, i32, i32, ptr, i32, i32, i32, i32, ptr, i64, i32, i32, %struct.AVIOInterruptCB, i32, i32, i32, i32, i64, i32, i32, i32, i32, i32, i32, i32, i32, i32, i32, i32, i32, i64, i32, i32, i32, i32, i32, ptr, ptr, ptr, ptr, i32, ptr, ptr, ptr, ptr, i32, ptr, ptr, i64, ptr, ptr, ptr, i64 }
%struct.AVIOInterruptCB = type { ptr, ptr }
%struct.StrDemuxContext = type { [32 x %struct.StrChannel] }
%struct.StrChannel = type { i32, %struct.AVPacket, i32 }
%struct.AVPacket = type { ptr, i64, i64, ptr, i32, i32, i32, ptr, i32, i64, i64, ptr, ptr, %struct.AVRational }
%struct.AVRational = type { i32, i32 }

; Function Attrs: nounwind uwtable
define internal i32 @str_read_close(ptr noundef %0) #0 {
  %2 = alloca ptr, align 8
  %3 = alloca ptr, align 8
  %4 = alloca i32, align 4
  store ptr %0, ptr %2, align 8, !tbaa !19
  call void @llvm.lifetime.start.p0(i64 8, ptr %3) #7
  %5 = load ptr, ptr %2, align 8, !tbaa !19
  %6 = getelementptr inbounds nuw %struct.AVFormatContext, ptr %5, i32 0, i32 3
  %7 = load ptr, ptr %6, align 8, !tbaa !37
  store ptr %7, ptr %3, align 8, !tbaa !38
  call void @llvm.lifetime.start.p0(i64 4, ptr %4) #7
  store i32 0, ptr %4, align 4, !tbaa !15
  br label %8

8:                                                ; preds = %29, %1
  %9 = load i32, ptr %4, align 4, !tbaa !15
  %10 = icmp slt i32 %9, 32
  br i1 %10, label %11, label %32

11:                                               ; preds = %8
  %12 = load ptr, ptr %3, align 8, !tbaa !38
  %13 = getelementptr inbounds nuw %struct.StrDemuxContext, ptr %12, i32 0, i32 0
  %14 = load i32, ptr %4, align 4, !tbaa !15
  %15 = sext i32 %14 to i64
  %16 = getelementptr inbounds [32 x %struct.StrChannel], ptr %13, i64 0, i64 %15
  %17 = getelementptr inbounds nuw %struct.StrChannel, ptr %16, i32 0, i32 1
  %18 = getelementptr inbounds nuw %struct.AVPacket, ptr %17, i32 0, i32 3
  %19 = load ptr, ptr %18, align 8, !tbaa !79
  %20 = icmp ne ptr %19, null
  br i1 %20, label %21, label %28

21:                                               ; preds = %11
  %22 = load ptr, ptr %3, align 8, !tbaa !38
  %23 = getelementptr inbounds nuw %struct.StrDemuxContext, ptr %22, i32 0, i32 0
  %24 = load i32, ptr %4, align 4, !tbaa !15
  %25 = sext i32 %24 to i64
  %26 = getelementptr inbounds [32 x %struct.StrChannel], ptr %23, i64 0, i64 %25
  %27 = getelementptr inbounds nuw %struct.StrChannel, ptr %26, i32 0, i32 1
  call void @av_packet_unref(ptr noundef %27)
  br label %28

28:                                               ; preds = %21, %11
  br label %29

29:                                               ; preds = %28
  %30 = load i32, ptr %4, align 4, !tbaa !15
  %31 = add nsw i32 %30, 1
  store i32 %31, ptr %4, align 4, !tbaa !15
  br label %8, !llvm.loop !80

32:                                               ; preds = %8
  call void @llvm.lifetime.end.p0(i64 4, ptr %4) #7
  call void @llvm.lifetime.end.p0(i64 8, ptr %3) #7
  ret i32 0
}