; Function Attrs: nounwind uwtable
define internal noundef i32 @str_read_close(ptr noundef readonly captures(none) %0) #1 {
  %2 = getelementptr inbounds nuw i8, ptr %0, i64 24
  %3 = load ptr, ptr %2, align 8, !tbaa !30
  br label %4

4:                                                ; preds = %1, %9
  %indvars.iv = phi i64 [ 0, %1 ], [ %indvars.iv.next, %9 ]
  %5 = getelementptr inbounds nuw [32 x %struct.StrChannel], ptr %3, i64 0, i64 %indvars.iv, i32 1
  %6 = getelementptr inbounds nuw i8, ptr %5, i64 24
  %7 = load ptr, ptr %6, align 8, !tbaa !68
  %.not = icmp eq ptr %7, null
  br i1 %.not, label %9, label %8

8:                                                ; preds = %4
  tail call void @av_packet_unref(ptr noundef nonnull %5) #7
  br label %9

9:                                                ; preds = %4, %8
  %indvars.iv.next = add nuw nsw i64 %indvars.iv, 1
  %exitcond.not = icmp eq i64 %indvars.iv.next, 32
  br i1 %exitcond.not, label %10, label %4, !llvm.loop !69

10:                                               ; preds = %9
  ret i32 0
}